target datalayout = "e-m:e-p270:32:32-p271:32:32-p272:64:64-i64:64-i128:128-f80:128-n8:16:32:64-S128"
target triple = "x86_64-pc-linux-gnu"

%struct.Abc_Ntk_t_ = type { i32, i32, ptr, ptr, ptr, ptr, ptr, ptr, ptr, ptr, ptr, ptr, ptr, [11 x i32], i32, i32, i32, i32, ptr, i32, ptr, ptr, i32, i32, i32, double, i32, %struct.Vec_Int_t_, ptr, ptr, ptr, ptr, ptr, float, i32, ptr, ptr, ptr, ptr, ptr, ptr, ptr, ptr, ptr, ptr, ptr, ptr, ptr, ptr, ptr, ptr, ptr, ptr, ptr, ptr, ptr }
%struct.Vec_Int_t_ = type { i32, i32, ptr }
%struct.Vec_Ptr_t_ = type { i32, i32, ptr }
%struct.Abc_Obj_t_ = type { ptr, ptr, i32, i32, %struct.Vec_Int_t_, %struct.Vec_Int_t_, %union.anon, %union.anon.0 }
%union.anon = type { ptr }
%union.anon.0 = type { ptr }

@.str.14 = private unnamed_addr constant [5 x i8] c" m%d\00", align 1
@.str.15 = private unnamed_addr constant [4 x i8] c" \\\0A\00", align 1
@.str.16 = private unnamed_addr constant [7 x i8] c" %c=%s\00", align 1

; Function Attrs: nounwind uwtable
define internal ptr @Abc_ObjFanin(ptr noundef %0, i32 noundef %1) #0 {
  %3 = alloca ptr, align 8
  %4 = alloca i32, align 4
  store ptr %0, ptr %3, align 8
  store i32 %1, ptr %4, align 4
  %5 = load ptr, ptr %3, align 8
  %6 = getelementptr inbounds %struct.Abc_Obj_t_, ptr %5, i32 0, i32 0
  %7 = load ptr, ptr %6, align 8
  %8 = getelementptr inbounds %struct.Abc_Ntk_t_, ptr %7, i32 0, i32 5
  %9 = load ptr, ptr %8, align 8
  %10 = getelementptr inbounds %struct.Vec_Ptr_t_, ptr %9, i32 0, i32 2
  %11 = load ptr, ptr %10, align 8
  %12 = load ptr, ptr %3, align 8
  %13 = getelementptr inbounds %struct.Abc_Obj_t_, ptr %12, i32 0, i32 4
  %14 = getelementptr inbounds %struct.Vec_Int_t_, ptr %13, i32 0, i32 2
  %15 = load ptr, ptr %14, align 8
  %16 = load i32, ptr %4, align 4
  %17 = sext i32 %16 to i64
  %18 = getelementptr inbounds i32, ptr %15, i64 %17
  %19 = load i32, ptr %18, align 4
  %20 = sext i32 %19 to i64
  %21 = getelementptr inbounds ptr, ptr %11, i64 %20
  %22 = load ptr, ptr %21, align 8
  ret ptr %22
}

; Function Attrs: nounwind uwtable
define internal i32 @Abc_ObjFaninNum(ptr noundef %0) #0 {
  %2 = alloca ptr, align 8
  store ptr %0, ptr %2, align 8
  %3 = load ptr, ptr %2, align 8
  %4 = getelementptr inbounds %struct.Abc_Obj_t_, ptr %3, i32 0, i32 4
  %5 = getelementptr inbounds %struct.Vec_Int_t_, ptr %4, i32 0, i32 1
  %6 = load i32, ptr %5, align 4
  ret i32 %6
}

; Function Attrs: nounwind uwtable
define internal i32 @Abc_ObjId(ptr noundef %0) #0 {
  %2 = alloca ptr, align 8
  store ptr %0, ptr %2, align 8
  %3 = load ptr, ptr %2, align 8
  %4 = getelementptr inbounds %struct.Abc_Obj_t_, ptr %3, i32 0, i32 2
  %5 = load i32, ptr %4, align 8
  ret i32 %5
}

; Function Attrs: nounwind uwtable
define internal ptr @Abc_ObjFanout0(ptr noundef %0) #0 {
  %2 = alloca ptr, align 8
  store ptr %0, ptr %2, align 8
  %3 = load ptr, ptr %2, align 8
  %4 = getelementptr inbounds %struct.Abc_Obj_t_, ptr %3, i32 0, i32 0
  %5 = load ptr, ptr %4, align 8
  %6 = getelementptr inbounds %struct.Abc_Ntk_t_, ptr %5, i32 0, i32 5
  %7 = load ptr, ptr %6, align 8
  %8 = getelementptr inbounds %struct.Vec_Ptr_t_, ptr %7, i32 0, i32 2
  %9 = load ptr, ptr %8, align 8
  %10 = load ptr, ptr %2, align 8
  %11 = getelementptr inbounds %struct.Abc_Obj_t_, ptr %10, i32 0, i32 5
  %12 = getelementptr inbounds %struct.Vec_Int_t_, ptr %11, i32 0, i32 2
  %13 = load ptr, ptr %12, align 8
  %14 = getelementptr inbounds i32, ptr %13, i64 0
  %15 = load i32, ptr %14, align 4
  %16 = sext i32 %15 to i64
  %17 = getelementptr inbounds ptr, ptr %9, i64 %16
  %18 = load ptr, ptr %17, align 8
  ret ptr %18
}

; Function Attrs: nounwind uwtable
define void @Io_NtkWriteSubcktFanins(ptr noundef %0, ptr noundef %1) #0 {
  %3 = alloca ptr, align 8
  %4 = alloca ptr, align 8
  %5 = alloca ptr, align 8
  %6 = alloca i32, align 4
  %7 = alloca i32, align 4
  %8 = alloca i32, align 4
  %9 = alloca ptr, align 8
  %10 = alloca i32, align 4
  store ptr %0, ptr %3, align 8
  store ptr %1, ptr %4, align 8
  store i32 6, ptr %6, align 4
  store i32 0, ptr %8, align 4
  %11 = load ptr, ptr %4, align 8
  %12 = call ptr @Abc_ObjFanout0(ptr noundef %11)
  %13 = call ptr @Abc_ObjName(ptr noundef %12)
  store ptr %13, ptr %9, align 8
  %14 = load ptr, ptr %9, align 8
  %15 = call i64 @strlen(ptr noundef %14) #8
  %16 = add i64 %15, 1
  %17 = trunc i64 %16 to i32
  store i32 %17, ptr %7, align 4
  %18 = load ptr, ptr %3, align 8
  %19 = load ptr, ptr %4, align 8
  %20 = call i32 @Abc_ObjId(ptr noundef %19)
  %21 = call i32 (ptr, ptr, ...) @fprintf(ptr noundef %18, ptr noundef @.str.14, i32 noundef %20) #7
  store i32 0, ptr %10, align 4
  br label %22

22:                                               ; preds = %62, %2
  %23 = load i32, ptr %10, align 4
  %24 = load ptr, ptr %4, align 8
  %25 = call i32 @Abc_ObjFaninNum(ptr noundef %24)
  %26 = icmp slt i32 %23, %25
  br i1 %26, label %27, label %31

27:                                               ; preds = %22
  %28 = load ptr, ptr %4, align 8
  %29 = load i32, ptr %10, align 4
  %30 = call ptr @Abc_ObjFanin(ptr noundef %28, i32 noundef %29)
  store ptr %30, ptr %5, align 8
  br label %31

31:                                               ; preds = %27, %22
  %32 = phi i1 [ false, %22 ], [ true, %27 ]
  br i1 %32, label %33, label %65

33:                                               ; preds = %31
  %34 = load ptr, ptr %5, align 8
  %35 = call ptr @Abc_ObjName(ptr noundef %34)
  store ptr %35, ptr %9, align 8
  %36 = load ptr, ptr %9, align 8
  %37 = call i64 @strlen(ptr noundef %36) #8
  %38 = add i64 %37, 3
  %39 = trunc i64 %38 to i32
  store i32 %39, ptr %7, align 4
  %40 = load i32, ptr %8, align 4
  %41 = icmp ne i32 %40, 0
  br i1 %41, label %42, label %51

42:                                               ; preds = %33
  %43 = load i32, ptr %6, align 4
  %44 = load i32, ptr %7, align 4
  %45 = add nsw i32 %43, %44
  %46 = add nsw i32 %45, 3
  %47 = icmp sgt i32 %46, 78
  br i1 %47, label %48, label %51

48:                                               ; preds = %42
  %49 = load ptr, ptr %3, align 8
  %50 = call i32 (ptr, ptr, ...) @fprintf(ptr noundef %49, ptr noundef @.str.15) #7
  store i32 0, ptr %6, align 4
  store i32 0, ptr %8, align 4
  br label %51

51:                                               ; preds = %48, %42, %33
  %52 = load ptr, ptr %3, align 8
  %53 = load i32, ptr %10, align 4
  %54 = add nsw i32 97, %53
  %55 = load ptr, ptr %9, align 8
  %56 = call i32 (ptr, ptr, ...) @fprintf(ptr noundef %52, ptr noundef @.str.16, i32 noundef %54, ptr noundef %55) #7
  %57 = load i32, ptr %7, align 4
  %58 = load i32, ptr %6, align 4
  %59 = add nsw i32 %58, %57
  store i32 %59, ptr %6, align 4
  %60 = load i32, ptr %8, align 4
  %61 = add nsw i32 %60, 1
  store i32 %61, ptr %8, align 4
  br label %62

62:                                               ; preds = %51
  %63 = load i32, ptr %10, align 4
  %64 = add nsw i32 %63, 1
  store i32 %64, ptr %10, align 4
  br label %22, !llvm.loop !10

65:                                               ; preds = %31
  %66 = load ptr, ptr %4, align 8
  %67 = call ptr @Abc_ObjFanout0(ptr noundef %66)
  %68 = call ptr @Abc_ObjName(ptr noundef %67)
  store ptr %68, ptr %9, align 8
  %69 = load ptr, ptr %9, align 8
  %70 = call i64 @strlen(ptr noundef %69) #8
  %71 = add i64 %70, 3
  %72 = trunc i64 %71 to i32
  store i32 %72, ptr %7, align 4
  %73 = load i32, ptr %8, align 4
  %74 = icmp ne i32 %73, 0
  br i1 %74, label %75, label %83

75:                                               ; preds = %65
  %76 = load i32, ptr %6, align 4
  %77 = load i32, ptr %7, align 4
  %78 = add nsw i32 %76, %77
  %79 = icmp sgt i32 %78, 75
  br i1 %79, label %80, label %83

80:                                               ; preds = %75
  %81 = load ptr, ptr %3, align 8
  %82 = call i32 (ptr, ptr, ...) @fprintf(ptr noundef %81, ptr noundef @.str.15) #7
  store i32 0, ptr %6, align 4
  store i32 0, ptr %8, align 4
  br label %83

83:                                               ; preds = %80, %75, %65
  %84 = load ptr, ptr %3, align 8
  %85 = load ptr, ptr %9, align 8
  %86 = call i32 (ptr, ptr, ...) @fprintf(ptr noundef %84, ptr noundef @.str.16, i32 noundef 111, ptr noundef %85) #7
  ret void
}