; Function Attrs: nounwind uwtable
define void @Io_NtkWriteSubcktFanins(ptr noundef captures(none) %0, ptr noundef readonly captures(none) %1) local_unnamed_addr #0 {
  %.val = load ptr, ptr %1, align 8
  %3 = getelementptr i8, ptr %1, i64 48
  %.val32 = load ptr, ptr %3, align 8
  %4 = getelementptr i8, ptr %.val, i64 32
  %.val.val = load ptr, ptr %4, align 8
  %.val32.val = load i32, ptr %.val32, align 4
  %5 = getelementptr i8, ptr %.val.val, i64 8
  %.val.val.val = load ptr, ptr %5, align 8
  %6 = sext i32 %.val32.val to i64
  %7 = getelementptr inbounds ptr, ptr %.val.val.val, i64 %6
  %8 = load ptr, ptr %7, align 8
  %9 = tail call ptr @Abc_ObjName(ptr noundef %8) #10
  %10 = getelementptr i8, ptr %1, i64 16
  %.val38 = load i32, ptr %10, align 8
  %11 = tail call i32 (ptr, ptr, ...) @fprintf(ptr noundef %0, ptr noundef nonnull @.str.14, i32 noundef %.val38) #10
  %12 = getelementptr i8, ptr %1, i64 28
  %.val3739 = load i32, ptr %12, align 4
  %13 = icmp sgt i32 %.val3739, 0
  br i1 %13, label %.lr.ph, label %.critedge

.lr.ph:                                           ; preds = %2
  %14 = getelementptr i8, ptr %1, i64 32
  br label %15

15:                                               ; preds = %.lr.ph, %32
  %indvars.iv = phi i64 [ 0, %.lr.ph ], [ %indvars.iv.next, %32 ]
  %.02841 = phi i32 [ 0, %.lr.ph ], [ %37, %32 ]
  %.02940 = phi i32 [ 6, %.lr.ph ], [ %36, %32 ]
  %.val35 = load ptr, ptr %1, align 8
  %.val36 = load ptr, ptr %14, align 8
  %16 = getelementptr i8, ptr %.val35, i64 32
  %.val35.val = load ptr, ptr %16, align 8
  %17 = getelementptr i8, ptr %.val35.val, i64 8
  %.val35.val.val = load ptr, ptr %17, align 8
  %18 = getelementptr inbounds nuw i32, ptr %.val36, i64 %indvars.iv
  %19 = load i32, ptr %18, align 4
  %20 = sext i32 %19 to i64
  %21 = getelementptr inbounds ptr, ptr %.val35.val.val, i64 %20
  %22 = load ptr, ptr %21, align 8
  %23 = tail call ptr @Abc_ObjName(ptr noundef %22) #10
  %24 = tail call i64 @strlen(ptr noundef nonnull dereferenceable(1) %23) #11
  %25 = trunc i64 %24 to i32
  %26 = add i32 %25, 3
  %.not31 = icmp eq i32 %.02841, 0
  br i1 %.not31, label %32, label %27

27:                                               ; preds = %15
  %28 = add nsw i32 %26, %.02940
  %29 = icmp sgt i32 %28, 75
  br i1 %29, label %30, label %32

30:                                               ; preds = %27
  %31 = tail call i64 @fwrite(ptr nonnull @.str.15, i64 3, i64 1, ptr %0)
  br label %32

32:                                               ; preds = %30, %27, %15
  %.130 = phi i32 [ 0, %30 ], [ %.02940, %27 ], [ %.02940, %15 ]
  %.1 = phi i32 [ 0, %30 ], [ %.02841, %27 ], [ 0, %15 ]
  %33 = trunc i64 %indvars.iv to i32
  %34 = add i32 %33, 97
  %35 = tail call i32 (ptr, ptr, ...) @fprintf(ptr noundef %0, ptr noundef nonnull @.str.16, i32 noundef %34, ptr noundef nonnull %23) #10
  %36 = add nsw i32 %.130, %26
  %37 = add nsw i32 %.1, 1
  %indvars.iv.next = add nuw nsw i64 %indvars.iv, 1
  %.val37 = load i32, ptr %12, align 4
  %38 = sext i32 %.val37 to i64
  %39 = icmp slt i64 %indvars.iv.next, %38
  br i1 %39, label %15, label %.critedge.loopexit, !llvm.loop !10

.critedge.loopexit:                               ; preds = %32
  %40 = icmp eq i32 %37, 0
  %41 = add i32 %36, 3
  br label %.critedge

.critedge:                                        ; preds = %.critedge.loopexit, %2
  %.029.lcssa = phi i32 [ 9, %2 ], [ %41, %.critedge.loopexit ]
  %.028.lcssa = phi i1 [ true, %2 ], [ %40, %.critedge.loopexit ]
  %.val33 = load ptr, ptr %1, align 8
  %.val34 = load ptr, ptr %3, align 8
  %42 = getelementptr i8, ptr %.val33, i64 32
  %.val33.val = load ptr, ptr %42, align 8
  %.val34.val = load i32, ptr %.val34, align 4
  %43 = getelementptr i8, ptr %.val33.val, i64 8
  %.val33.val.val = load ptr, ptr %43, align 8
  %44 = sext i32 %.val34.val to i64
  %45 = getelementptr inbounds ptr, ptr %.val33.val.val, i64 %44
  %46 = load ptr, ptr %45, align 8
  %47 = tail call ptr @Abc_ObjName(ptr noundef %46) #10
  br i1 %.028.lcssa, label %55, label %48

48:                                               ; preds = %.critedge
  %49 = tail call i64 @strlen(ptr noundef nonnull dereferenceable(1) %47) #11
  %50 = trunc i64 %49 to i32
  %51 = add i32 %.029.lcssa, %50
  %52 = icmp sgt i32 %51, 75
  br i1 %52, label %53, label %55

53:                                               ; preds = %48
  %54 = tail call i64 @fwrite(ptr nonnull @.str.15, i64 3, i64 1, ptr %0)
  br label %55

55:                                               ; preds = %53, %48, %.critedge
  %56 = tail call i32 (ptr, ptr, ...) @fprintf(ptr noundef %0, ptr noundef nonnull @.str.16, i32 noundef 111, ptr noundef %47) #10
  ret void
}